target datalayout = "e-m:e-p270:32:32-p271:32:32-p272:64:64-i64:64-i128:128-f80:128-n8:16:32:64-S128"
target triple = "x86_64-pc-linux-gnu"

%struct.Int128_ = type { i64, i64 }
%struct.Int = type { %struct.Int128_, i32 }

; Function Attrs: nounwind uwtable
define dso_local { i64, i64 } @i128_sub64(i64 %0, i64 %1, i64 noundef %2) #0 {
  %4 = alloca %struct.Int128_, align 8
  %5 = alloca %struct.Int128_, align 8
  %6 = alloca i64, align 8
  %7 = alloca i64, align 8
  %8 = getelementptr inbounds { i64, i64 }, ptr %5, i32 0, i32 0
  store i64 %0, ptr %8, align 8
  %9 = getelementptr inbounds { i64, i64 }, ptr %5, i32 0, i32 1
  store i64 %1, ptr %9, align 8
  store i64 %2, ptr %6, align 8
  %10 = getelementptr inbounds %struct.Int128_, ptr %5, i32 0, i32 1
  %11 = load i64, ptr %10, align 8
  %12 = load i64, ptr %6, align 8
  %13 = sub i64 %11, %12
  store i64 %13, ptr %7, align 8
  %14 = getelementptr inbounds %struct.Int128_, ptr %4, i32 0, i32 0
  %15 = load i64, ptr %7, align 8
  %16 = getelementptr inbounds %struct.Int128_, ptr %5, i32 0, i32 1
  %17 = load i64, ptr %16, align 8
  %18 = icmp ugt i64 %15, %17
  br i1 %18, label %19, label %23

19:                                               ; preds = %3
  %20 = getelementptr inbounds %struct.Int128_, ptr %5, i32 0, i32 0
  %21 = load i64, ptr %20, align 8
  %22 = sub i64 %21, 1
  br label %26

23:                                               ; preds = %3
  %24 = getelementptr inbounds %struct.Int128_, ptr %5, i32 0, i32 0
  %25 = load i64, ptr %24, align 8
  br label %26

26:                                               ; preds = %23, %19
  %27 = phi i64 [ %22, %19 ], [ %25, %23 ]
  store i64 %27, ptr %14, align 8
  %28 = getelementptr inbounds %struct.Int128_, ptr %4, i32 0, i32 1
  %29 = load i64, ptr %7, align 8
  store i64 %29, ptr %28, align 8
  %30 = load { i64, i64 }, ptr %4, align 8
  ret { i64, i64 } %30
}

; Function Attrs: nounwind uwtable
define dso_local void @int_sub64(ptr dead_on_unwind noalias writable sret(%struct.Int) align 8 %0, ptr noundef byval(%struct.Int) align 8 %1, i64 noundef %2) #0 {
  %4 = alloca i64, align 8
  %5 = alloca %struct.Int128_, align 8
  store i64 %2, ptr %4, align 8
  %6 = getelementptr inbounds %struct.Int, ptr %0, i32 0, i32 0
  %7 = getelementptr inbounds %struct.Int, ptr %1, i32 0, i32 0
  %8 = load i64, ptr %4, align 8
  %9 = getelementptr inbounds { i64, i64 }, ptr %7, i32 0, i32 0
  %10 = load i64, ptr %9, align 8
  %11 = getelementptr inbounds { i64, i64 }, ptr %7, i32 0, i32 1
  %12 = load i64, ptr %11, align 8
  %13 = call { i64, i64 } @i128_sub64(i64 %10, i64 %12, i64 noundef %8)
  %14 = getelementptr inbounds { i64, i64 }, ptr %5, i32 0, i32 0
  %15 = extractvalue { i64, i64 } %13, 0
  store i64 %15, ptr %14, align 8
  %16 = getelementptr inbounds { i64, i64 }, ptr %5, i32 0, i32 1
  %17 = extractvalue { i64, i64 } %13, 1
  store i64 %17, ptr %16, align 8
  %18 = getelementptr inbounds %struct.Int, ptr %1, i32 0, i32 1
  %19 = load i32, ptr %18, align 8
  %20 = getelementptr inbounds { i64, i64 }, ptr %5, i32 0, i32 0
  %21 = load i64, ptr %20, align 8
  %22 = getelementptr inbounds { i64, i64 }, ptr %5, i32 0, i32 1
  %23 = load i64, ptr %22, align 8
  %24 = call { i64, i64 } @i128_extend(i64 %21, i64 %23, i32 noundef %19)
  %25 = getelementptr inbounds { i64, i64 }, ptr %6, i32 0, i32 0
  %26 = extractvalue { i64, i64 } %24, 0
  store i64 %26, ptr %25, align 8
  %27 = getelementptr inbounds { i64, i64 }, ptr %6, i32 0, i32 1
  %28 = extractvalue { i64, i64 } %24, 1
  store i64 %28, ptr %27, align 8
  %29 = getelementptr inbounds %struct.Int, ptr %0, i32 0, i32 1
  %30 = getelementptr inbounds %struct.Int, ptr %1, i32 0, i32 1
  %31 = load i32, ptr %30, align 8
  store i32 %31, ptr %29, align 8
  ret void
}